; Function Attrs: mustprogress uwtable
define noundef nonnull align 8 dereferenceable(8) ptr @_ZN8QuantLiblsERSoRKNS_8Settings9DateProxyE(ptr noundef nonnull align 8 dereferenceable(8) %out, ptr nocapture noundef nonnull readonly align 8 dereferenceable(24) %p) local_unnamed_addr #3 {
entry:
  %ref.tmp.i = alloca %"class.QuantLib::Date", align 8
  %ref.tmp = alloca %"class.QuantLib::Date", align 8
  call void @llvm.lifetime.start.p0(i64 8, ptr nonnull %ref.tmp) #10
  call void @llvm.lifetime.start.p0(i64 8, ptr nonnull %ref.tmp.i) #10
  call void @_ZN8QuantLib4DateC1Ev(ptr noundef nonnull align 8 dereferenceable(8) %ref.tmp.i)
  %0 = load i64, ptr %p, align 8, !tbaa !3
  %1 = load i64, ptr %ref.tmp.i, align 8, !tbaa !28
  %cmp.i.i = icmp eq i64 %0, %1
  call void @llvm.lifetime.end.p0(i64 8, ptr nonnull %ref.tmp.i) #10
  br i1 %cmp.i.i, label %if.then.i, label %_ZNK8QuantLib8Settings9DateProxycvNS_4DateEEv.exit

if.then.i:                                        ; preds = %entry
  %call3.i = call i64 @_ZN8QuantLib4Date10todaysDateEv()
  br label %_ZNK8QuantLib8Settings9DateProxycvNS_4DateEEv.exit

_ZNK8QuantLib8Settings9DateProxycvNS_4DateEEv.exit: ; preds = %entry, %if.then.i
  %retval.sroa.0.0.i = phi i64 [ %call3.i, %if.then.i ], [ %0, %entry ]
  store i64 %retval.sroa.0.0.i, ptr %ref.tmp, align 8
  %call1 = call noundef nonnull align 8 dereferenceable(8) ptr @_ZN8QuantLiblsERSoRKNS_4DateE(ptr noundef nonnull align 8 dereferenceable(8) %out, ptr noundef nonnull align 8 dereferenceable(8) %ref.tmp)
  call void @llvm.lifetime.end.p0(i64 8, ptr nonnull %ref.tmp) #10
  ret ptr %call1
}